target datalayout = "e-m:e-p270:32:32-p271:32:32-p272:64:64-i64:64-i128:128-f80:128-n8:16:32:64-S128"
target triple = "x86_64-pc-linux-gnu"

%struct.lv_grad_dsc_t = type { [2 x %struct.lv_gradient_stop_t], i8, i8 }
%struct.lv_gradient_stop_t = type { %struct.lv_color_t, i8, i8 }
%struct.lv_color_t = type { i8, i8, i8 }

; Function Attrs: nounwind uwtable
define void @lv_gradient_init_stops(ptr noundef %0, ptr noundef %1, ptr noundef %2, ptr noundef %3, i32 noundef %4) #0 {
  %6 = alloca ptr, align 8
  %7 = alloca ptr, align 8
  %8 = alloca ptr, align 8
  %9 = alloca ptr, align 8
  %10 = alloca i32, align 4
  %11 = alloca i32, align 4
  store ptr %0, ptr %6, align 8, !tbaa !3
  store ptr %1, ptr %7, align 8, !tbaa !3
  store ptr %2, ptr %8, align 8, !tbaa !3
  store ptr %3, ptr %9, align 8, !tbaa !3
  store i32 %4, ptr %10, align 4, !tbaa !7
  br label %12

12:                                               ; preds = %5
  %13 = load i32, ptr %10, align 4, !tbaa !7
  %14 = icmp sle i32 %13, 2
  br i1 %14, label %19, label %15

15:                                               ; preds = %12
  br label %16

16:                                               ; preds = %15
  br label %17

17:                                               ; preds = %16
  br label %18

18:                                               ; preds = %17, %18
  br label %18

19:                                               ; preds = %12
  br label %20

20:                                               ; preds = %19
  %21 = load i32, ptr %10, align 4, !tbaa !7
  %22 = trunc i32 %21 to i8
  %23 = load ptr, ptr %6, align 8, !tbaa !3
  %24 = getelementptr inbounds nuw %struct.lv_grad_dsc_t, ptr %23, i32 0, i32 1
  store i8 %22, ptr %24, align 2, !tbaa !23
  call void @llvm.lifetime.start.p0(i64 4, ptr %11) #4
  store i32 0, ptr %11, align 4, !tbaa !7
  br label %25

25:                                               ; preds = %84, %20
  %26 = load i32, ptr %11, align 4, !tbaa !7
  %27 = load i32, ptr %10, align 4, !tbaa !7
  %28 = icmp slt i32 %26, %27
  br i1 %28, label %30, label %29

29:                                               ; preds = %25
  call void @llvm.lifetime.end.p0(i64 4, ptr %11) #4
  br label %87

30:                                               ; preds = %25
  %31 = load ptr, ptr %6, align 8, !tbaa !3
  %32 = getelementptr inbounds nuw %struct.lv_grad_dsc_t, ptr %31, i32 0, i32 0
  %33 = load i32, ptr %11, align 4, !tbaa !7
  %34 = sext i32 %33 to i64
  %35 = getelementptr inbounds [2 x %struct.lv_gradient_stop_t], ptr %32, i64 0, i64 %34
  %36 = getelementptr inbounds nuw %struct.lv_gradient_stop_t, ptr %35, i32 0, i32 0
  %37 = load ptr, ptr %7, align 8, !tbaa !3
  %38 = load i32, ptr %11, align 4, !tbaa !7
  %39 = sext i32 %38 to i64
  %40 = getelementptr inbounds %struct.lv_color_t, ptr %37, i64 %39
  call void @llvm.memcpy.p0.p0.i64(ptr align 1 %36, ptr align 1 %40, i64 3, i1 false), !tbaa.struct !20
  %41 = load ptr, ptr %8, align 8, !tbaa !3
  %42 = icmp ne ptr %41, null
  br i1 %42, label %43, label %50

43:                                               ; preds = %30
  %44 = load ptr, ptr %8, align 8, !tbaa !3
  %45 = load i32, ptr %11, align 4, !tbaa !7
  %46 = sext i32 %45 to i64
  %47 = getelementptr inbounds i8, ptr %44, i64 %46
  %48 = load i8, ptr %47, align 1, !tbaa !21
  %49 = zext i8 %48 to i32
  br label %51

50:                                               ; preds = %30
  br label %51

51:                                               ; preds = %50, %43
  %52 = phi i32 [ %49, %43 ], [ 255, %50 ]
  %53 = trunc i32 %52 to i8
  %54 = load ptr, ptr %6, align 8, !tbaa !3
  %55 = getelementptr inbounds nuw %struct.lv_grad_dsc_t, ptr %54, i32 0, i32 0
  %56 = load i32, ptr %11, align 4, !tbaa !7
  %57 = sext i32 %56 to i64
  %58 = getelementptr inbounds [2 x %struct.lv_gradient_stop_t], ptr %55, i64 0, i64 %57
  %59 = getelementptr inbounds nuw %struct.lv_gradient_stop_t, ptr %58, i32 0, i32 1
  store i8 %53, ptr %59, align 1, !tbaa !22
  %60 = load ptr, ptr %9, align 8, !tbaa !3
  %61 = icmp ne ptr %60, null
  br i1 %61, label %62, label %69

62:                                               ; preds = %51
  %63 = load ptr, ptr %9, align 8, !tbaa !3
  %64 = load i32, ptr %11, align 4, !tbaa !7
  %65 = sext i32 %64 to i64
  %66 = getelementptr inbounds i8, ptr %63, i64 %65
  %67 = load i8, ptr %66, align 1, !tbaa !21
  %68 = zext i8 %67 to i32
  br label %75

69:                                               ; preds = %51
  %70 = load i32, ptr %11, align 4, !tbaa !7
  %71 = mul nsw i32 255, %70
  %72 = load i32, ptr %10, align 4, !tbaa !7
  %73 = sub nsw i32 %72, 1
  %74 = sdiv i32 %71, %73
  br label %75

75:                                               ; preds = %69, %62
  %76 = phi i32 [ %68, %62 ], [ %74, %69 ]
  %77 = trunc i32 %76 to i8
  %78 = load ptr, ptr %6, align 8, !tbaa !3
  %79 = getelementptr inbounds nuw %struct.lv_grad_dsc_t, ptr %78, i32 0, i32 0
  %80 = load i32, ptr %11, align 4, !tbaa !7
  %81 = sext i32 %80 to i64
  %82 = getelementptr inbounds [2 x %struct.lv_gradient_stop_t], ptr %79, i64 0, i64 %81
  %83 = getelementptr inbounds nuw %struct.lv_gradient_stop_t, ptr %82, i32 0, i32 2
  store i8 %77, ptr %83, align 1, !tbaa !17
  br label %84

84:                                               ; preds = %75
  %85 = load i32, ptr %11, align 4, !tbaa !7
  %86 = add nsw i32 %85, 1
  store i32 %86, ptr %11, align 4, !tbaa !7
  br label %25, !llvm.loop !29

87:                                               ; preds = %29
  ret void
}