; Function Attrs: nofree norecurse nosync nounwind memory(argmem: readwrite) uwtable
define void @lv_gradient_init_stops(ptr nocapture noundef writeonly %0, ptr nocapture noundef readonly %1, ptr noundef readonly %2, ptr noundef readonly %3, i32 noundef %4) local_unnamed_addr #3 {
  %6 = icmp slt i32 %4, 3
  br i1 %6, label %7, label %.preheader

.preheader:                                       ; preds = %5, %.preheader
  br label %.preheader

7:                                                ; preds = %5
  %8 = trunc i32 %4 to i8
  %9 = getelementptr inbounds nuw i8, ptr %0, i64 10
  store i8 %8, ptr %9, align 2, !tbaa !17
  %10 = icmp sgt i32 %4, 0
  br i1 %10, label %.lr.ph, label %._crit_edge

.lr.ph:                                           ; preds = %7
  %.not = icmp eq ptr %2, null
  %.not24 = icmp eq ptr %3, null
  %11 = add nsw i32 %4, -1
  %wide.trip.count44 = zext nneg i32 %4 to i64
  br i1 %.not24, label %.lr.ph.split.us, label %.lr.ph.split

.lr.ph.split.us:                                  ; preds = %.lr.ph
  br i1 %.not, label %.lr.ph.split.us.split.us, label %.lr.ph.split.us.split

.lr.ph.split.us.split.us:                         ; preds = %.lr.ph.split.us, %.lr.ph.split.us.split.us
  %indvars.iv41 = phi i64 [ %indvars.iv.next42, %.lr.ph.split.us.split.us ], [ 0, %.lr.ph.split.us ]
  %12 = getelementptr inbounds [2 x %struct.lv_gradient_stop_t], ptr %0, i64 0, i64 %indvars.iv41
  %13 = getelementptr inbounds %struct.lv_color_t, ptr %1, i64 %indvars.iv41
  tail call void @llvm.memcpy.p0.p0.i64(ptr noundef nonnull align 1 dereferenceable(3) %12, ptr noundef nonnull align 1 dereferenceable(3) %13, i64 3, i1 false), !tbaa.struct !21
  %14 = getelementptr inbounds nuw i8, ptr %12, i64 3
  store i8 -1, ptr %14, align 1, !tbaa !16
  %15 = trunc i64 %indvars.iv41 to i32
  %16 = mul i32 %15, 255
  %17 = udiv i32 %16, %11
  %18 = trunc nuw i32 %17 to i8
  %19 = getelementptr inbounds nuw i8, ptr %12, i64 4
  store i8 %18, ptr %19, align 1, !tbaa !13
  %indvars.iv.next42 = add nuw nsw i64 %indvars.iv41, 1
  %exitcond45.not = icmp eq i64 %indvars.iv.next42, %wide.trip.count44
  br i1 %exitcond45.not, label %._crit_edge, label %.lr.ph.split.us.split.us, !llvm.loop !22

.lr.ph.split.us.split:                            ; preds = %.lr.ph.split.us, %.lr.ph.split.us.split
  %indvars.iv36 = phi i64 [ %indvars.iv.next37, %.lr.ph.split.us.split ], [ 0, %.lr.ph.split.us ]
  %20 = getelementptr inbounds [2 x %struct.lv_gradient_stop_t], ptr %0, i64 0, i64 %indvars.iv36
  %21 = getelementptr inbounds %struct.lv_color_t, ptr %1, i64 %indvars.iv36
  tail call void @llvm.memcpy.p0.p0.i64(ptr noundef nonnull align 1 dereferenceable(3) %20, ptr noundef nonnull align 1 dereferenceable(3) %21, i64 3, i1 false), !tbaa.struct !21
  %22 = getelementptr inbounds i8, ptr %2, i64 %indvars.iv36
  %23 = load i8, ptr %22, align 1, !tbaa !20
  %24 = getelementptr inbounds nuw i8, ptr %20, i64 3
  store i8 %23, ptr %24, align 1, !tbaa !16
  %25 = trunc i64 %indvars.iv36 to i32
  %26 = mul i32 %25, 255
  %27 = udiv i32 %26, %11
  %28 = trunc nuw i32 %27 to i8
  %29 = getelementptr inbounds nuw i8, ptr %20, i64 4
  store i8 %28, ptr %29, align 1, !tbaa !13
  %indvars.iv.next37 = add nuw nsw i64 %indvars.iv36, 1
  %exitcond40.not = icmp eq i64 %indvars.iv.next37, %wide.trip.count44
  br i1 %exitcond40.not, label %._crit_edge, label %.lr.ph.split.us.split, !llvm.loop !22

.lr.ph.split:                                     ; preds = %.lr.ph
  br i1 %.not, label %.lr.ph.split.split.us, label %.lr.ph.split.split

.lr.ph.split.split.us:                            ; preds = %.lr.ph.split, %.lr.ph.split.split.us
  %indvars.iv31 = phi i64 [ %indvars.iv.next32, %.lr.ph.split.split.us ], [ 0, %.lr.ph.split ]
  %30 = getelementptr inbounds [2 x %struct.lv_gradient_stop_t], ptr %0, i64 0, i64 %indvars.iv31
  %31 = getelementptr inbounds %struct.lv_color_t, ptr %1, i64 %indvars.iv31
  tail call void @llvm.memcpy.p0.p0.i64(ptr noundef nonnull align 1 dereferenceable(3) %30, ptr noundef nonnull align 1 dereferenceable(3) %31, i64 3, i1 false), !tbaa.struct !21
  %32 = getelementptr inbounds nuw i8, ptr %30, i64 3
  store i8 -1, ptr %32, align 1, !tbaa !16
  %33 = getelementptr inbounds i8, ptr %3, i64 %indvars.iv31
  %34 = load i8, ptr %33, align 1, !tbaa !20
  %35 = getelementptr inbounds nuw i8, ptr %30, i64 4
  store i8 %34, ptr %35, align 1, !tbaa !13
  %indvars.iv.next32 = add nuw nsw i64 %indvars.iv31, 1
  %exitcond35.not = icmp eq i64 %indvars.iv.next32, %wide.trip.count44
  br i1 %exitcond35.not, label %._crit_edge, label %.lr.ph.split.split.us, !llvm.loop !22

._crit_edge:                                      ; preds = %.lr.ph.split.split, %.lr.ph.split.split.us, %.lr.ph.split.us.split, %.lr.ph.split.us.split.us, %7
  ret void

.lr.ph.split.split:                               ; preds = %.lr.ph.split, %.lr.ph.split.split
  %indvars.iv = phi i64 [ %indvars.iv.next, %.lr.ph.split.split ], [ 0, %.lr.ph.split ]
  %36 = getelementptr inbounds [2 x %struct.lv_gradient_stop_t], ptr %0, i64 0, i64 %indvars.iv
  %37 = getelementptr inbounds %struct.lv_color_t, ptr %1, i64 %indvars.iv
  tail call void @llvm.memcpy.p0.p0.i64(ptr noundef nonnull align 1 dereferenceable(3) %36, ptr noundef nonnull align 1 dereferenceable(3) %37, i64 3, i1 false), !tbaa.struct !21
  %38 = getelementptr inbounds i8, ptr %2, i64 %indvars.iv
  %39 = load i8, ptr %38, align 1, !tbaa !20
  %40 = getelementptr inbounds nuw i8, ptr %36, i64 3
  store i8 %39, ptr %40, align 1, !tbaa !16
  %41 = getelementptr inbounds i8, ptr %3, i64 %indvars.iv
  %42 = load i8, ptr %41, align 1, !tbaa !20
  %43 = getelementptr inbounds nuw i8, ptr %36, i64 4
  store i8 %42, ptr %43, align 1, !tbaa !13
  %indvars.iv.next = add nuw nsw i64 %indvars.iv, 1
  %exitcond.not = icmp eq i64 %indvars.iv.next, %wide.trip.count44
  br i1 %exitcond.not, label %._crit_edge, label %.lr.ph.split.split, !llvm.loop !22
}